; Function Attrs: nounwind uwtable
define range(i32 -1, 1) i32 @H5PLprepend(ptr noundef %0) local_unnamed_addr #0 {
  %2 = load i8, ptr @H5_libinit_g, align 1
  %3 = trunc i8 %2 to i1
  %4 = load i8, ptr @H5_libterm_g, align 1
  %5 = trunc i8 %4 to i1
  %6 = select i1 %3, i1 true, i1 %5
  br i1 %6, label %14, label %7

7:                                                ; preds = %1
  %8 = tail call i32 @H5_init_library() #4
  %9 = icmp slt i32 %8, 0
  br i1 %9, label %10, label %14

10:                                               ; preds = %7
  %11 = load i64, ptr @H5E_FUNC_g, align 8
  %12 = load i64, ptr @H5E_CANTINIT_g, align 8
  %13 = tail call i32 (ptr, ptr, i32, i64, i64, ptr, ...) @H5E_printf_stack(ptr noundef nonnull @.str, ptr noundef nonnull @__func__.H5PLprepend, i32 noundef 169, i64 noundef %11, i64 noundef %12, ptr noundef nonnull @.str.1) #4
  br label %.thread21

14:                                               ; preds = %7, %1
  %15 = tail call i32 @H5CX_push() #4
  %16 = icmp slt i32 %15, 0
  br i1 %16, label %17, label %21

17:                                               ; preds = %14
  %18 = load i64, ptr @H5E_FUNC_g, align 8
  %19 = load i64, ptr @H5E_CANTSET_g, align 8
  %20 = tail call i32 (ptr, ptr, i32, i64, i64, ptr, ...) @H5E_printf_stack(ptr noundef nonnull @.str, ptr noundef nonnull @__func__.H5PLprepend, i32 noundef 169, i64 noundef %18, i64 noundef %19, ptr noundef nonnull @.str.2) #4
  br label %.thread21

21:                                               ; preds = %14
  %22 = tail call i32 @H5E_clear_stack() #4
  %23 = icmp eq ptr %0, null
  br i1 %23, label %24, label %28

24:                                               ; preds = %21
  %25 = load i64, ptr @H5E_ARGS_g, align 8
  %26 = load i64, ptr @H5E_BADVALUE_g, align 8
  %27 = tail call i32 (ptr, ptr, i32, i64, i64, ptr, ...) @H5E_printf_stack(ptr noundef nonnull @.str, ptr noundef nonnull @__func__.H5PLprepend, i32 noundef 173, i64 noundef %25, i64 noundef %26, ptr noundef nonnull @.str.6) #4
  br label %.thread27

28:                                               ; preds = %21
  %char0 = load i8, ptr %0, align 1
  %29 = icmp eq i8 %char0, 0
  br i1 %29, label %30, label %34

30:                                               ; preds = %28
  %31 = load i64, ptr @H5E_ARGS_g, align 8
  %32 = load i64, ptr @H5E_BADVALUE_g, align 8
  %33 = tail call i32 (ptr, ptr, i32, i64, i64, ptr, ...) @H5E_printf_stack(ptr noundef nonnull @.str, ptr noundef nonnull @__func__.H5PLprepend, i32 noundef 175, i64 noundef %31, i64 noundef %32, ptr noundef nonnull @.str.7) #4
  br label %.thread27

34:                                               ; preds = %28
  %35 = tail call i32 @H5PL__prepend_path(ptr noundef nonnull %0) #4
  %36 = icmp slt i32 %35, 0
  br i1 %36, label %37, label %42

37:                                               ; preds = %34
  %38 = load i64, ptr @H5E_PLUGIN_g, align 8
  %39 = load i64, ptr @H5E_CANTINSERT_g, align 8
  %40 = tail call i32 (ptr, ptr, i32, i64, i64, ptr, ...) @H5E_printf_stack(ptr noundef nonnull @.str, ptr noundef nonnull @__func__.H5PLprepend, i32 noundef 179, i64 noundef %38, i64 noundef %39, ptr noundef nonnull @.str.9) #4
  br label %.thread27

.thread27:                                        ; preds = %37, %30, %24
  %41 = tail call i32 @H5CX_pop(i1 noundef zeroext true) #4
  br label %.thread21

42:                                               ; preds = %34
  %43 = tail call i32 @H5CX_pop(i1 noundef zeroext true) #4
  br label %45

.thread21:                                        ; preds = %17, %10, %.thread27
  %44 = tail call i32 @H5E_dump_api_stack() #4
  br label %45

45:                                               ; preds = %42, %.thread21
  %.0111624 = phi i32 [ -1, %.thread21 ], [ 0, %42 ]
  ret i32 %.0111624
}